target datalayout = "e-m:e-p270:32:32-p271:32:32-p272:64:64-i64:64-i128:128-f80:128-n8:16:32:64-S128"
target triple = "x86_64-pc-linux-gnu"

%struct.bio_st = type { ptr, ptr, ptr, ptr, ptr, i32, i32, i32, i32, i32, ptr, ptr, ptr, %struct.CRYPTO_REF_COUNT, i64, i64, %struct.crypto_ex_data_st }
%struct.CRYPTO_REF_COUNT = type { i32 }
%struct.crypto_ex_data_st = type { ptr, ptr }

; Function Attrs: nounwind uwtable
define internal i32 @fd_new(ptr noundef %0) #0 {
  %2 = alloca ptr, align 8
  store ptr %0, ptr %2, align 8, !tbaa !7
  %3 = load ptr, ptr %2, align 8, !tbaa !7
  %4 = getelementptr inbounds nuw %struct.bio_st, ptr %3, i32 0, i32 5
  store i32 0, ptr %4, align 8, !tbaa !27
  %5 = load ptr, ptr %2, align 8, !tbaa !7
  %6 = getelementptr inbounds nuw %struct.bio_st, ptr %5, i32 0, i32 9
  store i32 -1, ptr %6, align 8, !tbaa !12
  %7 = load ptr, ptr %2, align 8, !tbaa !7
  %8 = getelementptr inbounds nuw %struct.bio_st, ptr %7, i32 0, i32 10
  store ptr null, ptr %8, align 8, !tbaa !30
  %9 = load ptr, ptr %2, align 8, !tbaa !7
  %10 = getelementptr inbounds nuw %struct.bio_st, ptr %9, i32 0, i32 7
  store i32 0, ptr %10, align 8, !tbaa !20
  ret i32 1
}